target datalayout = "e-m:e-p270:32:32-p271:32:32-p272:64:64-i64:64-i128:128-f80:128-n8:16:32:64-S128"
target triple = "x86_64-pc-linux-gnu"

@.str.353 = private unnamed_addr constant [28 x i8] c"WiMAX MAC-PHY over Ethernet\00", align 1
@.str.354 = private unnamed_addr constant [14 x i8] c"WiMAX MAC-PHY\00", align 1
@.str.355 = private unnamed_addr constant [12 x i8] c"wimaxmacphy\00", align 1
@proto_wimaxmacphy = internal global i32 0, align 4
@wimaxmacphy_handle = internal global ptr null, align 8

; Function Attrs: null_pointer_is_valid sspstrong uwtable
define hidden void @proto_register_wimaxmacphy() #0 {
  %1 = alloca ptr, align 8
  call void @llvm.lifetime.start.p0(i64 8, ptr %1) #3
  %2 = call i32 @proto_register_protocol(ptr noundef @.str.353, ptr noundef @.str.354, ptr noundef @.str.355)
  store i32 %2, ptr @proto_wimaxmacphy, align 4
  %3 = load i32, ptr @proto_wimaxmacphy, align 4
  %4 = call ptr @register_dissector(ptr noundef @.str.355, ptr noundef @dissect_wimaxmacphy, i32 noundef %3)
  store ptr %4, ptr @wimaxmacphy_handle, align 8
  %5 = load i32, ptr @proto_wimaxmacphy, align 4
  call void @proto_register_field_array(i32 noundef %5, ptr noundef @proto_register_wimaxmacphy.hf, i32 noundef 223)
  call void @proto_register_subtree_array(ptr noundef @proto_register_wimaxmacphy.ett, i32 noundef 40)
  %6 = load i32, ptr @proto_wimaxmacphy, align 4
  %7 = call ptr @expert_register_protocol(i32 noundef %6)
  store ptr %7, ptr %1, align 8
  %8 = load ptr, ptr %1, align 8
  call void @expert_register_field_array(ptr noundef %8, ptr noundef @proto_register_wimaxmacphy.ei, i32 noundef 1)
  call void @llvm.lifetime.end.p0(i64 8, ptr %1) #3
  ret void
}