; Function Attrs: null_pointer_is_valid sspstrong uwtable
define hidden void @proto_register_wimaxmacphy() local_unnamed_addr #0 {
  %1 = tail call i32 @proto_register_protocol(ptr noundef nonnull @.str.353, ptr noundef nonnull @.str.354, ptr noundef nonnull @.str.355)
  store i32 %1, ptr @proto_wimaxmacphy, align 4
  %2 = tail call ptr @register_dissector(ptr noundef nonnull @.str.355, ptr noundef nonnull @dissect_wimaxmacphy, i32 noundef %1)
  store ptr %2, ptr @wimaxmacphy_handle, align 8
  %3 = load i32, ptr @proto_wimaxmacphy, align 4
  tail call void @proto_register_field_array(i32 noundef %3, ptr noundef nonnull @proto_register_wimaxmacphy.hf, i32 noundef 223)
  tail call void @proto_register_subtree_array(ptr noundef nonnull @proto_register_wimaxmacphy.ett, i32 noundef 40)
  %4 = load i32, ptr @proto_wimaxmacphy, align 4
  %5 = tail call ptr @expert_register_protocol(i32 noundef %4)
  tail call void @expert_register_field_array(ptr noundef %5, ptr noundef nonnull @proto_register_wimaxmacphy.ei, i32 noundef 1)
  ret void
}